; Function Attrs: nounwind uwtable
define ptr @l_Lake_instMonadLiftTOptionOfAlternative__lake___rarg(ptr noundef %0, ptr readnone captures(none) %1, ptr noundef %2) #0 {
  %4 = ptrtoint ptr %2 to i64
  %5 = and i64 %4, 1
  %.not.i31 = icmp eq i64 %5, 0
  br i1 %.not.i31, label %9, label %6

6:                                                ; preds = %3
  %7 = lshr i64 %4, 1
  %8 = trunc i64 %7 to i32
  br label %lean_obj_tag.exit

9:                                                ; preds = %3
  %10 = getelementptr i8, ptr %2, i64 4
  %.val.i = load i32, ptr %10, align 4
  %11 = lshr i32 %.val.i, 24
  br label %lean_obj_tag.exit

lean_obj_tag.exit:                                ; preds = %6, %9
  %.0.i = phi i32 [ %8, %6 ], [ %11, %9 ]
  %12 = icmp eq i32 %.0.i, 0
  br i1 %12, label %13, label %34

13:                                               ; preds = %lean_obj_tag.exit
  %14 = getelementptr inbounds nuw i8, ptr %0, i64 16
  %15 = load ptr, ptr %14, align 8, !tbaa !4
  %16 = ptrtoint ptr %15 to i64
  %17 = and i64 %16, 1
  %.not47 = icmp eq i64 %17, 0
  br i1 %.not47, label %18, label %lean_inc.exit21

18:                                               ; preds = %13
  %.val.i32 = load i32, ptr %15, align 4, !tbaa !8
  %19 = icmp sgt i32 %.val.i32, 0
  br i1 %19, label %20, label %22, !prof !11

20:                                               ; preds = %18
  %21 = add nuw i32 %.val.i32, 1
  store i32 %21, ptr %15, align 4, !tbaa !8
  br label %lean_inc.exit21

22:                                               ; preds = %18
  %.not.i33 = icmp eq i32 %.val.i32, 0
  br i1 %.not.i33, label %lean_inc.exit21, label %23

23:                                               ; preds = %22
  tail call void @lean_inc_ref_cold(ptr noundef nonnull %15) #3
  br label %lean_inc.exit21

lean_inc.exit21:                                  ; preds = %23, %22, %20, %13
  %24 = ptrtoint ptr %0 to i64
  %25 = and i64 %24, 1
  %.not48 = icmp eq i64 %25, 0
  br i1 %.not48, label %26, label %lean_dec.exit24

26:                                               ; preds = %lean_inc.exit21
  %27 = load i32, ptr %0, align 4, !tbaa !8
  %28 = icmp sgt i32 %27, 1
  br i1 %28, label %29, label %31, !prof !11

29:                                               ; preds = %26
  %30 = add nsw i32 %27, -1
  store i32 %30, ptr %0, align 4, !tbaa !8
  br label %lean_dec.exit24

31:                                               ; preds = %26
  %.not.i = icmp eq i32 %27, 0
  br i1 %.not.i, label %lean_dec.exit24, label %32

32:                                               ; preds = %31
  tail call void @lean_dec_ref_cold(ptr noundef nonnull %0) #3
  br label %lean_dec.exit24

lean_dec.exit24:                                  ; preds = %32, %31, %29, %lean_inc.exit21
  %33 = tail call ptr @lean_apply_1(ptr noundef %15, ptr noundef nonnull inttoptr (i64 1 to ptr)) #3
  br label %89

34:                                               ; preds = %lean_obj_tag.exit
  %35 = getelementptr inbounds nuw i8, ptr %2, i64 8
  %36 = load ptr, ptr %35, align 8, !tbaa !4
  %37 = ptrtoint ptr %36 to i64
  %38 = and i64 %37, 1
  %.not = icmp eq i64 %38, 0
  br i1 %.not, label %39, label %lean_inc.exit20

39:                                               ; preds = %34
  %.val.i34 = load i32, ptr %36, align 4, !tbaa !8
  %40 = icmp sgt i32 %.val.i34, 0
  br i1 %40, label %41, label %43, !prof !11

41:                                               ; preds = %39
  %42 = add nuw i32 %.val.i34, 1
  store i32 %42, ptr %36, align 4, !tbaa !8
  br label %lean_inc.exit20

43:                                               ; preds = %39
  %.not.i35 = icmp eq i32 %.val.i34, 0
  br i1 %.not.i35, label %lean_inc.exit20, label %44

44:                                               ; preds = %43
  tail call void @lean_inc_ref_cold(ptr noundef nonnull %36) #3
  br label %lean_inc.exit20

lean_inc.exit20:                                  ; preds = %44, %43, %41, %34
  br i1 %.not.i31, label %45, label %lean_dec.exit23

45:                                               ; preds = %lean_inc.exit20
  %46 = load i32, ptr %2, align 4, !tbaa !8
  %47 = icmp sgt i32 %46, 1
  br i1 %47, label %48, label %50, !prof !11

48:                                               ; preds = %45
  %49 = add nsw i32 %46, -1
  store i32 %49, ptr %2, align 4, !tbaa !8
  br label %lean_dec.exit23

50:                                               ; preds = %45
  %.not.i25 = icmp eq i32 %46, 0
  br i1 %.not.i25, label %lean_dec.exit23, label %51

51:                                               ; preds = %50
  tail call void @lean_dec_ref_cold(ptr noundef nonnull %2) #3
  br label %lean_dec.exit23

lean_dec.exit23:                                  ; preds = %51, %50, %48, %lean_inc.exit20
  %52 = getelementptr inbounds nuw i8, ptr %0, i64 8
  %53 = load ptr, ptr %52, align 8, !tbaa !4
  %54 = ptrtoint ptr %53 to i64
  %55 = and i64 %54, 1
  %.not44 = icmp eq i64 %55, 0
  br i1 %.not44, label %56, label %lean_inc.exit19

56:                                               ; preds = %lean_dec.exit23
  %.val.i37 = load i32, ptr %53, align 4, !tbaa !8
  %57 = icmp sgt i32 %.val.i37, 0
  br i1 %57, label %58, label %60, !prof !11

58:                                               ; preds = %56
  %59 = add nuw i32 %.val.i37, 1
  store i32 %59, ptr %53, align 4, !tbaa !8
  br label %lean_inc.exit19

60:                                               ; preds = %56
  %.not.i38 = icmp eq i32 %.val.i37, 0
  br i1 %.not.i38, label %lean_inc.exit19, label %61

61:                                               ; preds = %60
  tail call void @lean_inc_ref_cold(ptr noundef nonnull %53) #3
  br label %lean_inc.exit19

lean_inc.exit19:                                  ; preds = %61, %60, %58, %lean_dec.exit23
  %62 = ptrtoint ptr %0 to i64
  %63 = and i64 %62, 1
  %.not45 = icmp eq i64 %63, 0
  br i1 %.not45, label %64, label %lean_dec.exit22

64:                                               ; preds = %lean_inc.exit19
  %65 = load i32, ptr %0, align 4, !tbaa !8
  %66 = icmp sgt i32 %65, 1
  br i1 %66, label %67, label %69, !prof !11

67:                                               ; preds = %64
  %68 = add nsw i32 %65, -1
  store i32 %68, ptr %0, align 4, !tbaa !8
  br label %lean_dec.exit22

69:                                               ; preds = %64
  %.not.i27 = icmp eq i32 %65, 0
  br i1 %.not.i27, label %lean_dec.exit22, label %70

70:                                               ; preds = %69
  tail call void @lean_dec_ref_cold(ptr noundef nonnull %0) #3
  br label %lean_dec.exit22

lean_dec.exit22:                                  ; preds = %70, %69, %67, %lean_inc.exit19
  %71 = getelementptr inbounds nuw i8, ptr %53, i64 16
  %72 = load ptr, ptr %71, align 8, !tbaa !4
  %73 = ptrtoint ptr %72 to i64
  %74 = and i64 %73, 1
  %.not46 = icmp eq i64 %74, 0
  br i1 %.not46, label %75, label %lean_inc.exit

75:                                               ; preds = %lean_dec.exit22
  %.val.i40 = load i32, ptr %72, align 4, !tbaa !8
  %76 = icmp sgt i32 %.val.i40, 0
  br i1 %76, label %77, label %79, !prof !11

77:                                               ; preds = %75
  %78 = add nuw i32 %.val.i40, 1
  store i32 %78, ptr %72, align 4, !tbaa !8
  br label %lean_inc.exit

79:                                               ; preds = %75
  %.not.i41 = icmp eq i32 %.val.i40, 0
  br i1 %.not.i41, label %lean_inc.exit, label %80

80:                                               ; preds = %79
  tail call void @lean_inc_ref_cold(ptr noundef nonnull %72) #3
  br label %lean_inc.exit

lean_inc.exit:                                    ; preds = %80, %79, %77, %lean_dec.exit22
  br i1 %.not44, label %81, label %lean_dec.exit

81:                                               ; preds = %lean_inc.exit
  %82 = load i32, ptr %53, align 4, !tbaa !8
  %83 = icmp sgt i32 %82, 1
  br i1 %83, label %84, label %86, !prof !11

84:                                               ; preds = %81
  %85 = add nsw i32 %82, -1
  store i32 %85, ptr %53, align 4, !tbaa !8
  br label %lean_dec.exit

86:                                               ; preds = %81
  %.not.i29 = icmp eq i32 %82, 0
  br i1 %.not.i29, label %lean_dec.exit, label %87

87:                                               ; preds = %86
  tail call void @lean_dec_ref_cold(ptr noundef nonnull %53) #3
  br label %lean_dec.exit

lean_dec.exit:                                    ; preds = %87, %86, %84, %lean_inc.exit
  %88 = tail call ptr @lean_apply_2(ptr noundef %72, ptr noundef nonnull inttoptr (i64 1 to ptr), ptr noundef %36) #3
  br label %89

89:                                               ; preds = %lean_dec.exit, %lean_dec.exit24
  %.0 = phi ptr [ %33, %lean_dec.exit24 ], [ %88, %lean_dec.exit ]
  ret ptr %.0
}